; Function Attrs: nounwind uwtable
define internal void @pymem_destructor(ptr noundef %0) #0 {
  %2 = tail call ptr @PyCapsule_GetPointer(ptr noundef %0, ptr noundef nonnull @.str.2) #10
  %.not = icmp eq ptr %2, null
  br i1 %.not, label %4, label %3

3:                                                ; preds = %1
  tail call void @PyMem_Free(ptr noundef nonnull %2) #10
  br label %4

4:                                                ; preds = %3, %1
  ret void
}